(dp1
S'csITpChannelInterfaceChatState'
p2
S'9b902aff-360e-417a-a4a5-555e8d9cc22a'
p3
sS'csITpChannelTypeRoomListServerCB'
p4
S'26821114-0b95-4338-9bfc-17f4523fefac'
p5
sS'csITpSimpleStatusSpec'
p6
S'60376cd0-b358-47ce-bf8f-12fb2fe880e0'
p7
sS'csITpConnectionInterfaceAliasingSetAliasesCB'
p8
S'1c68b201-3957-46fe-b211-67acca30c1f5'
p9
sS'csITpContactAttributesMap'
p10
S'47fd5566-0f28-4ce8-8194-8727ff7bb099'
p11
sS'csITpChannelInterfaceGroupSelfHandleCB'
p12
S'434ffd80-b439-40a2-9633-1256a20c0e5f'
p13
sS'csITpChannelInterfaceGroupRemoveMembersWithReasonCB'
p14
S'a8b4e040-f7fe-4514-ada0-284d399ebf94'
p15
sS'csITpChannelInfo'
p16
S'4b261fef-f372-4f50-97c5-8460654c3cd4'
p17
sS'csITpSupportedSocketMap'
p18
S'91d01230-309a-495e-afe1-451d57cd7d1e'
p19
sS'csITpConnection'
p20
S'932bf60c-de2b-4a3f-a6e0-ac3fcaec3944'
p21
sS'csITpChannelDispatcherCreateChannelCB'
p22
S'bdd13f79-1e43-4a8c-b4e8-1fc604201a74'
p23
sS'csITpChannelTypeStreamedMedia'
p24
S'5128cb80-6703-4d74-9b8f-9ca3574939ae'
p25
sS'csITpSocketAddressIPv6'
p26
S'e418fc7f-00d7-43d8-875d-e180bc7ad989'
p27
sS'csITpChannelTypeFileTransferAcceptFileCB'
p28
S'c296285a-d376-4388-b5a4-f1affae5edb8'
p29
sS'csITpSocketAddressIPv4'
p30
S'516c7f4e-6d74-452e-ac7c-867e417c38db'
p31
sS'csITpChannelTypeFileTransferInitialOffsetCB'
p32
S'0bd91f17-5c41-47c6-bf2d-63e96785fb35'
p33
sS'csITpChannelInterfaceGroupGetGroupFlagsCB'
p34
S'e9a79dd7-a88a-4a85-a770-defa0daaa4a8'
p35
sS'csITpParamSpec'
p36
S'5bf939ea-a468-47df-93d4-4b67239c69a8'
p37
sS'csITpChannelDispatchOperationHandleWithCB'
p38
S'0d75350c-99f0-4b18-8a88-78f1b9b989d4'
p39
sS'csITpConnectionInterfacePresenceGetStatusesCB'
p40
S'fdfb3614-9f52-46bc-abb3-f3cb6c1c285c'
p41
sS'csITpChannelTypeTubesTubeClosedObserver'
p42
S'72e9bccb-ad16-4645-acf1-d9a001710f3c'
p43
sS'csITpChannelTypeStreamTubeServiceCB'
p44
S'17735a82-4f14-4d0a-83a4-b941db2f21d7'
p45
sS'csITpConnectionStatusChangedObserver'
p46
S'615cf5e4-0f00-4d33-879e-d601647d9e22'
p47
sS'csITpConnectionInterfaceSimplePresence'
p48
S'a4154510-42c4-4502-b8de-36b4cee00e50'
p49
sS'csITpRichPresenceAccessControl'
p50
S'489928ee-e350-4b4b-aa8a-3e58ec33ab32'
p51
sS'csITpChannelInterfaceMediaSignalling'
p52
S'8cc1befa-6e30-46de-9c80-f33609bc2c78'
p53
sS'csITpChannelInterfaceGroupGetLocalPendingMembersWithInfoCB'
p54
S'56309922-b453-4efa-99a7-6b464f31246d'
p55
sS'csITpChannelTargetIDCB'
p56
S'c155776e-8c57-4b2d-a1ae-4e3ac69b463d'
p57
sS'csITpConnectionInterfaceContactCapabilitiesUpdateCapabilitiesCB'
p58
S'5229a620-12ce-4482-a91d-75f28dfa69db'
p59
sS'csITpChannelRequestRequestsCB'
p60
S'62586a2d-14c3-48cd-a7df-4ae141949d4f'
p61
sS'csITpChannelInterfaceGroupGetRemotePendingMembersCB'
p62
S'd49ca39c-06bd-4fac-897d-4e292e6bfe11'
p63
sS'csITpConnectionInterfaceAvatarsAvatarRetrievedObserver'
p64
S'eefa7345-4eef-445a-99c4-fdda4b95c54f'
p65
sS'csITpConnectionInterfaceAvatarsSupportedAvatarMIMETypesCB'
p66
S'21dbf20f-e8ad-4499-8784-a5dfaf656a41'
p67
sS'csITpChannelDetails'
p68
S'c2a7dfef-23cd-4e93-ab3a-c7b534f5edfc'
p69
sS'csITpConnectionManager'
p70
S'7ca75da7-b635-4372-ac7f-32b6240d00b6'
p71
sS'csITpLocation'
p72
S'89e40a4c-1b48-4dfa-bdda-c3479d8602b4'
p73
sS'csITpConnectionInterfaceSimplePresenceSetPresenceCB'
p74
S'efcb0931-6fa8-4b1f-8149-0dadee7b3040'
p75
sS'csITpConnectionInterfaceContactCapabilities'
p76
S'a41bea54-e1d9-4242-9e51-fc71129c2614'
p77
sS'csITpChannelInterfaceGroupMembersChangedDetailedObserver'
p78
S'6ede183a-c0d7-4d44-aea3-eb25c11d53e4'
p79
sS'csITpConnectionGetInterfacesCB'
p80
S'15ae71e3-baad-4d45-a65c-9e36f8161cea'
p81
sS'csITpChannelDispatcherInterfaceOperationListDispatchOperationsCB'
p82
S'b530e746-d29e-473e-90f4-ad9085201b8a'
p83
sS'csITpChannelInterfacePasswordPasswordFlagsChangedObserver'
p84
S'5ad82975-edbb-42d7-ada6-83cfa0d4f5ea'
p85
sS'csITpChannelTypeTubesAcceptDBusTubeCB'
p86
S'8ff93c6c-fbf1-4d63-b043-bba347dbaa6f'
p87
sS'csITpChannelGetInterfacesCB'
p88
S'84649758-087d-480d-8b72-1e4d1fad8687'
p89
sS'csITpChannelInterfaceTubeTubeChannelStateChangedObserver'
p90
S'4d423f0a-4d45-42c1-9659-e357a2cd28aa'
p91
sS'csITpChannelTypeFileTransferTransferredBytesChangedObserver'
p92
S'3464465f-0257-4d39-ba4b-36c4df9ec90c'
p93
sS'csITpConnectionInterfaceAvatarsGetAvatarRequirementsCB'
p94
S'70eab6a1-7492-49d5-8ffd-96b1567a0f80'
p95
sS'csITpChannelTypeRoomListListRoomsCB'
p96
S'f0f08456-4666-4290-a6e6-d27810912c55'
p97
sS'csITpChannelInterfaceGroupGetAllMembersCB'
p98
S'524ba9ed-4fd4-4765-80cc-9a8969d027b8'
p99
sS'csITpConnectionConnectionErrorObserver'
p100
S'6533dda1-9e42-4910-8050-3aca3fecbcfb'
p101
sS'csITpChannelInterfaceGroupLocalPendingMembersCB'
p102
S'7e358315-8062-4edb-a864-6562beb9cd99'
p103
sS'csITpConnectionInterfaceAvatarsMaximumAvatarWidthCB'
p104
S'18a5acb9-6e34-4b1f-a6af-d04b621ccc59'
p105
sS'csITpChannelInterfaceGroupMembersChangedObserver'
p106
S'9251234d-bb79-40b5-b072-96587b1524ff'
p107
sS'csITpChannelInterfaceGroupGetSelfHandleCB'
p108
S'afbfcd1e-8616-47f0-961e-6470d356fa5f'
p109
sS'csITpChannelTypeTubesGetAvailableStreamTubeTypesCB'
p110
S'68319d93-0ffc-4f3f-a273-bfa086490c36'
p111
sS'csITpChannelCallStateMap'
p112
S'b9388c94-329d-4530-916b-dea73edd51b4'
p113
sS'csITpConnectionInterfaceAliasingGetAliasFlagsCB'
p114
S'53f1ce3f-914c-48ef-b134-ee3d9c870e01'
p115
sS'csITpConnectionInterfaceLocationGetLocationsCB'
p116
S'860576cf-804a-40df-bc27-3c4f011ac034'
p117
sS'csITpChannelTypeStreamedMediaStreamStateChangedObserver'
p118
S'6ee4654e-b867-494f-b271-fe71d2da83ee'
p119
sS'csITpMessagePart'
p120
S'ddfd3728-0372-4553-b290-920b06076e55'
p121
sS'csITpChannelDispatchOperationChannelLostObserver'
p122
S'4c06fbe3-a8f1-4bba-8398-3eee8a58dbc9'
p123
sS'csITpChannelInterfaceDestroyableDestroyCB'
p124
S'0747ad53-5613-448a-96cd-bdfb66e3c770'
p125
sS'csITpChannelInterfaceMessagesMessageSentObserver'
p126
S'7c01333c-843b-4ff9-a924-60ec1dfd3958'
p127
sS'csITpConnectionInterfaceAvatarsMaximumAvatarBytesCB'
p128
S'cdcee3ce-69e0-4b91-b218-b00adb34bc65'
p129
sS'csITpChannelInterfaceGroupGroupFlagsCB'
p130
S'e207d0ae-97af-490c-b1db-ca9f0168598e'
p131
sS'csITpChannelInterfaceCallState'
p132
S'397ff6e4-c8ff-4b5c-a56c-7f23383d866c'
p133
sS'csITpChannelCloseCB'
p134
S'f2d05593-17d7-42dd-8cba-a710a8ea5452'
p135
sS'csITpChannelTypeRoomListGetListingRoomsCB'
p136
S'b281862e-711d-41fa-b21b-aa27e98e7086'
p137
sS'csITpChannelRequestPreferredHandlerCB'
p138
S'7f31d0f4-1f49-4ddd-97ef-bfc29f01d1b6'
p139
sS'csITpChannelDispatchOperationClaimCB'
p140
S'cb11e837-4c85-4b6b-b00f-32d365dc94bb'
p141
sS'csITpConnectionManagerListProtocolsCB'
p142
S'4427a022-9073-44ca-a2a3-90dfbb7bd924'
p143
sS'csITpChannelRequestFailedObserver'
p144
S'a6380a6b-3574-4f82-96d7-6f3d52eb0030'
p145
sS'csITpConnectionInterfaceCapabilitiesCapabilitiesChangedObserver'
p146
S'5188eebc-9f1e-4f91-b2f5-2b71247ad6b7'
p147
sS'csITpChannelInitiatorIDCB'
p148
S'6318ea77-4bac-41d2-9b12-875ea40d7531'
p149
sS'csITpConnectionConnectCB'
p150
S'00a50005-c990-4cfc-9d70-0a5f5a95f9df'
p151
sS'csITpConnectionManagerInterfacesCB'
p152
S'95bf4b4b-264d-49bc-8a4a-6ff11cf5fa8c'
p153
sS'csITpChannelInterfaceHoldRequestHoldCB'
p154
S'dbf09f09-e89a-450b-9462-1ce313fa3d04'
p155
sS'csITpChannelTypeStreamTubeConnectionClosedObserver'
p156
S'b94702ef-515a-4ac3-8fc6-0160a3f9af8c'
p157
sS'csITpChannelInterfaceMessagesGetPendingMessageContentCB'
p158
S'f048ad8a-ce60-49ff-8013-348413365442'
p159
sS'csITpStatusSpec'
p160
S'fdbd3109-5266-4a9c-ae1a-12a1ad1c42b4'
p161
sS'csITpConnectionInterfaceRequestsNewChannelsObserver'
p162
S'2062f993-3a8b-4b54-9547-a6dd5000ffe0'
p163
sS'csITpChannelTypeDBusTubeSupportedAccessControlsCB'
p164
S'032b9d8f-4829-4414-9fe8-4f825819e041'
p165
sS'csITpConnectionInterfacePresenceRemoveStatusCB'
p166
S'af65c290-b17b-49d0-8cbd-2cf204d9d6a1'
p167
sS'csITpChannelTypeTubes'
p168
S'8877528c-d8c8-4494-b878-53b440b450a1'
p169
sS'csITpConnectionInterfaceAvatarsRecommendedAvatarHeightCB'
p170
S'3cd4c932-da34-4b15-b8c4-75d7a1b33392'
p171
sS'csITpConnectionInterfaceAvatarsRequestAvatarCB'
p172
S'b167fc72-ff04-44f5-aee9-ce6994c6b26e'
p173
sS'csITpChannelDispatchOperationConnectionCB'
p174
S'aa35f9cd-19a5-4132-9167-e74319e3fdfd'
p175
sS'csITpSimpleContactPresences'
p176
S'66b8308a-524c-4b4d-b0f3-39d1da7ca177'
p177
sS'csITpCapabilityPair'
p178
S'22591172-a0d5-400f-8e5a-59716da4941a'
p179
sS'csITpConnectionInterfaceAvatarsMinimumAvatarHeightCB'
p180
S'c8b97b55-e506-4c8e-bc3e-c9444894cc4a'
p181
sS'csITpChannelInterfaceDTMFStopToneCB'
p182
S'1adc163b-d98b-4bf1-9e6d-a5b30cb2c27a'
p183
sS'csITpChannelTypeTubesNewTubeObserver'
p184
S'8a26f7b2-737e-44b1-9680-a0472aca094e'
p185
sS'csITpChannelInterfaceGroupRemotePendingMembersCB'
p186
S'049e1650-4b68-4795-b4c0-a4800cf42940'
p187
sS'csITpChannelInterfaceTube'
p188
S'dc181194-c24e-4777-958f-1b563f533114'
p189
sS'csITpChannelTypeStreamedMediaStreamDirectionChangedObserver'
p190
S'28edcb8d-b39e-4185-ac51-bfdc4632ea33'
p191
sS'csITpDBusTubeParticipants'
p192
S'49e4a0e3-5f02-48b1-9e89-8f9a56caf9e8'
p193
sS'csITpContactCapability'
p194
S'c26430db-79c5-4995-88e0-25887e8c98eb'
p195
sS'csITpConnectionInterfaceAliasingGetAliasesCB'
p196
S'8500770c-54e2-459e-abc3-7edcfc69f9e0'
p197
sS'csITpChannelDispatchOperationFinishedObserver'
p198
S'657fda3b-21ed-49ca-b513-33bd216bea48'
p199
sS'csITpChannelTypeStreamedMediaRequestStreamDirectionCB'
p200
S'd40e3a7f-c135-4208-8749-aa0a2888c510'
p201
sS'csITpChannelRequestCancelCB'
p202
S'266977fb-32e9-4434-8f81-e242e95280dc'
p203
sS'csITpChannelChannelTypeCB'
p204
S'd69ccf79-bd29-40f3-a3cd-f18d349c3af9'
p205
sS'csITpChannelDispatcherInterfaceOperationListNewDispatchOperationObserver'
p206
S'731d1198-2780-4e5b-8132-808e69e96dcf'
p207
sS'csITpChannelTypeTubesGetDBusTubeAddressCB'
p208
S'e717087b-9bbc-48c6-8feb-96a512eac361'
p209
sS'csITpChannelTypeFileTransferContentHashTypeCB'
p210
S'04456906-337f-4893-b111-b3b9eeae782f'
p211
sS'csITpChannelTypeFileTransferTransferredBytesCB'
p212
S'0ed1c06c-ddb9-4d50-a667-1365241caada'
p213
sS'csITpChannelInterfaceMediaSignallingGetSessionHandlersCB'
p214
S'b2f43706-9e18-4699-883d-d4cfd6dc8472'
p215
sS'csITpMultipleStatusMap'
p216
S'c67bee5b-e1c6-4a5b-b9be-ea9db712eb5c'
p217
sS'csITpChannelTypeFileTransferFilenameCB'
p218
S'ef4ccea8-8b6f-412b-bb96-e23deb71848d'
p219
sS'csITpChannelInterfacePasswordGetPasswordFlagsCB'
p220
S'fa751f0a-c3bc-4468-86ca-52f698bd733d'
p221
sS'csITpChannelTypeStreamedMediaRequestStreamsCB'
p222
S'a4d5c58a-67b6-4f4b-930d-03cb94d8abea'
p223
sS'csITpChannelDispatchOperationInterfacesCB'
p224
S'3ca5c3d7-1d23-4e08-98dc-2b38573964f1'
p225
sS'csITpChannelTypeTextSentObserver'
p226
S'710d7ee1-3fe4-47f9-8de4-c9a0fd58158d'
p227
sS'csITpConnectionInterfacePresenceClearStatusCB'
p228
S'33d95c14-f329-4c01-8abf-dfed93461f61'
p229
sS'csITpConnectionReleaseHandlesCB'
p230
S'ec8e0ad5-1522-4158-ab7e-242ccd4e0cc1'
p231
sS'csITpChannelTypeTextSendErrorObserver'
p232
S'30e924db-70d6-49fa-87a2-3537cfb7eb46'
p233
sS'csITpConnectionManagerGetParametersCB'
p234
S'1c160bfb-bda7-4f26-9f63-4c4d12b7f4cd'
p235
sS'csITpChannelTypeFileTransferDateCB'
p236
S'f006e758-63cb-4732-a2db-dfa8c48610ae'
p237
sS'csITpHandlerCapabilities'
p238
S'a317630a-673f-4917-9454-8e413840a807'
p239
sS'csITpConnectionInterfaceSimplePresenceGetPresencesCB'
p240
S'35a4ec1a-34a8-4fcd-9ea3-b293eeb9b8f2'
p241
sS'csITpConnectionInterfaceAvatarsClearAvatarCB'
p242
S'dd84b54a-cd2d-4e01-b23c-3edcc1bf7cdb'
p243
sS'csITpConnectionInterfaceAliasing'
p244
S'ed02ee4e-bfec-4784-8255-7ec19935d073'
p245
sS'csITpConnectionInterfaceRequestsEnsureChannelCB'
p246
S'cb9c518d-9f04-4804-bf4f-eacb74903b70'
p247
sS'csITpChannelTypeDBusTubeServiceNameCB'
p248
S'125bd0d2-9d1a-4010-8541-f4c52926d2a6'
p249
sS'csITpChannelTypeStreamedMediaRemoveStreamsCB'
p250
S'3d9abbf0-bf45-408c-8e96-5b95467b952c'
p251
sS'csITpChannelTypeTextListPendingMessagesCB'
p252
S'50051a43-1a6f-4cc0-9ac6-150589b3b626'
p253
sS'csITpChannel'
p254
S'ed4d4d80-0a59-4d98-9309-7fdbe2c57846'
p255
sS'csITpChannelInterfaceGroupGetMembersCB'
p256
S'f41834aa-1780-42f4-8bad-5cadf8570488'
p257
sS'csITpConnectionInterfaceContactCapabilitiesContactCapabilitiesChangedObserver'
p258
S'ab6476d1-a5f1-4cd0-bdec-8abc96b88de5'
p259
sS'csITpChannelTypeStreamTube'
p260
S'409fa642-3970-4249-881e-ded5db0453cf'
p261
sS'csITpChannelTypeTubesListTubesCB'
p262
S'3668305f-ea6a-4ab7-b2f9-d8bffdf7ceab'
p263
sS'csITpConnectionInterfaceAvatarsGetAvatarTokensCB'
p264
S'34480697-4dce-4a79-a447-d25831a5a8dd'
p265
sS'csITpConnectionNewChannelObserver'
p266
S'07dfc4ae-f7a8-444e-ade0-f4f29ca7293d'
p267
sS'csITpChannelInterfaceChatStateChatStateChangedObserver'
p268
S'3c44ded2-ca2a-437e-8f0d-5ccb70441c1c'
p269
sS'csITpChannelTypeTubesOfferDBusTubeCB'
p270
S'455ce4d4-8f7e-4ae6-b4f0-5d14f0a2bb02'
p271
sS'csITpConnectionInterfaceAvatarsRecommendedAvatarWidthCB'
p272
S'15479d81-c2ad-469a-9585-e0aae62fe4fe'
p273
sS'csITpChannelInterfaceGroupGroupFlagsChangedObserver'
p274
S'00ac9c77-c597-41b3-8154-547d37696bc8'
p275
sS'csITpConnectionInterfaceRequestsCreateChannelCB'
p276
S'4d7979f7-3cca-4c42-b8cd-275939f1dd79'
p277
sS'csITpConnectionInterfaceAliasingAliasesChangedObserver'
p278
S'5c0a3b03-b138-40ab-a7e3-ed79835f1e6b'
p279
sS'csITpChannelTypeText'
p280
S'495e071a-432a-49bd-84f6-fa8df73b6723'
p281
sS'csITpChannelInitiatorHandleCB'
p282
S'3d6b535b-c81a-46b9-9af9-23f84da8f9ea'
p283
sS'csITpChannelInterfaceMessages'
p284
S'26127862-4801-49e4-b424-29a5c2e97ce0'
p285
sS'csITpChannelTypeTubesAcceptStreamTubeCB'
p286
S'b58f02c6-9d90-46b1-82c1-1baee3ac2872'
p287
sS'csITpChannelClass'
p288
S'94abaffa-a1f6-404e-ac27-2ebfa0a2d353'
p289
sS'csITpChannelInterfaceHoldHoldStateChangedObserver'
p290
S'b3a010a4-8bba-4f54-9f76-aac227a57685'
p291
sS'csITpSimplePresence'
p292
S'e1b2e533-d200-4c35-aeb5-1b18623963c5'
p293
sS'csITpContactLocations'
p294
S'b6b42789-ca06-442a-93b9-17831ba12bb4'
p295
sS'csITpConnectionDisconnectCB'
p296
S'1bcf2254-e526-44c8-836f-f65d475a202f'
p297
sS'csITpChannelTypeDBusTubeOfferCB'
p298
S'd4aebff4-ecc9-4a22-921f-dfe25ff463d6'
p299
sS'csITpChannelDispatchOperationPossibleHandlersCB'
p300
S'9c743a11-c5d1-4558-9b99-090118512ee6'
p301
sS'csITpMessagePartContentMap'
p302
S'77de6009-fc98-4101-8a47-dc8ee50ee4cb'
p303
sS'csITpChannelTypeTubesGetAvailableTubeTypesCB'
p304
S'76d56a54-6209-4037-bf35-072d044ab118'
p305
sS'csITpChannelDispatcherInterfaceOperationListDispatchOperationFinishedObserver'
p306
S'6a88703b-4e1f-4bed-ad5d-0eab7a5af403'
p307
sS'csITpChannelTypeTubesDBusNamesChangedObserver'
p308
S'6fb30277-4f4d-41b3-9220-b6b1f7260d99'
p309
sS'csITpChannelTypeTubesCloseTubeCB'
p310
S'95840bf4-80f9-4933-8fd5-3f3b314a5eeb'
p311
sS'csITpChannelTypeFileTransfer'
p312
S'9787e367-0374-4bb4-9aad-eed7944bb077'
p313
sS'csITpChannelTypeDBusTubeDBusNamesCB'
p314
S'f7e9586f-7e60-4e05-bd0d-84ee2183efdb'
p315
sS'csITpChannelTypeStreamTubeSupportedSocketTypesCB'
p316
S'1bb1e48b-5f2e-4a22-9341-ce324e935e8a'
p317
sS'csITpContactCapabilitiesMap'
p318
S'2a67d3fa-fe00-4b07-9e02-a7989dfbe4e2'
p319
sS'csITpChannelInterfaceMessagesSupportedContentTypesCB'
p320
S'906112ad-3199-4206-9477-44033ce8c41e'
p321
sS'csITpChannelTypeFileTransferContentHashCB'
p322
S'a61068b9-9bbe-4203-a94d-91a56937d74f'
p323
sS'csITpConnectionSelfHandleChangedObserver'
p324
S'6018f12b-9a0f-402c-93cc-5f902d507171'
p325
sS'csITpChannelTypeStreamedMediaStreamAddedObserver'
p326
S'9fedd6b4-26e9-4caf-a5e9-78da990496e5'
p327
sS'csITpChannelTargetHandleTypeCB'
p328
S'9be88b56-3419-4a64-a628-9f2933b7405c'
p329
sS'csITpConnectionListChannelsCB'
p330
S'7fa3d093-6933-458d-9254-e001b37f2927'
p331
sS'csITpChannelTypeRoomList'
p332
S'8cf79dd9-9a4e-4306-b01c-06a08b71a102'
p333
sS'csITpSocketAddressIP'
p334
S'bac798ca-8677-43c8-93df-2b793094abc9'
p335
sS'csITpConnectionInterfaceLocation'
p336
S'90b49e4f-690c-4d2c-8b53-5bad71160b84'
p337
sS'csITpChannelTypeFileTransferStateCB'
p338
S'999ab74c-e7ab-4b13-b31e-bcf13460b9df'
p339
sS'csITpSingleContactAttributesMap'
p340
S'8e5c4221-5e27-45e4-b1bf-6f607ffca9cb'
p341
sS'csITpChannelTypeFileTransferProvideFileCB'
p342
S'19a13ef1-f818-4fbc-90c4-dc1ef7664539'
p343
sS'csITpConnectionInterfacePresenceSetStatusCB'
p344
S'c803cc17-94c9-4fbb-8ff5-8927d1af460d'
p345
sS'csITpMediaStreamInfo'
p346
S'4f186877-05f1-4f8a-b32b-017aa695c637'
p347
sS'csITpChannelInterfaceMessagesPendingMessagesRemovedObserver'
p348
S'e0701126-fa78-4762-8269-855ddd49df3f'
p349
sS'csITpSimpleStatusSpecMap'
p350
S'ddf2166e-2cef-46ee-84b4-394ba26c59b3'
p351
sS'csITpChannelTypeStreamedMediaInitialVideoCB'
p352
S'9966f8c0-2f72-4efb-9970-823a474f9a38'
p353
sS'csITpChannelInterfacePassword'
p354
S'bc79b0e8-d879-4aaa-bc0d-8ecb6a3a3bb9'
p355
sS'csITpChannelTypeRoomListStopListingCB'
p356
S'54621841-70f7-426f-b143-81d14bc9567f'
p357
sS'csITpConnectionInterfacePresence'
p358
S'7db8ae34-d94c-4d1d-b417-7f695bd0e502'
p359
sS'csITpChannelGetChannelTypeCB'
p360
S'cefee160-8b31-40f6-af07-76707108ec43'
p361
sS'csITpConnectionInterfaceCapabilitiesAdvertiseCapabilitiesCB'
p362
S'391092ea-f395-4653-94ae-91744fad6e8e'
p363
sS'csITpChannelInterfaceMessagesPendingMessagesCB'
p364
S'2f29b7c8-abaf-491a-bd0f-10b9b0c870b1'
p365
sS'csITpConnectionInterfacePresenceSetLastActivityTimeCB'
p366
S'1acf7e86-3422-4acb-9fbc-3148aa20f631'
p367
sS'csITpChannelInterfaceHold'
p368
S'ede697c5-16ae-4b82-be12-06a94f9c8b3f'
p369
sS'csITpConnectionManagerNewConnectionObserver'
p370
S'dfa755f1-8d29-448d-b08d-8d1f241c9e0b'
p371
sS'csITpChannelInterfaceGroupRemoveMembersCB'
p372
S'4a0920ba-1e2b-44ed-9ded-c47148bc74b3'
p373
sS'csITpLastActivityAndStatuses'
p374
S'4a15dfdc-8136-49b7-a4eb-a5aa9a74f9a6'
p375
sS'csITpChannelInterfaceGroupMembersCB'
p376
S'f34e5087-af77-4f69-9131-62095cfe124c'
p377
sS'csITpChannelInterfaceDTMFStartToneCB'
p378
S'4ea88957-9d32-44a2-af60-1ed655a5310b'
p379
sS'csITpChannelTypeStreamTubeOfferCB'
p380
S'6c12aa10-032e-48c7-8bb9-aee3e8f6b10b'
p381
sS'csITpConnectionRequestHandlesCB'
p382
S'5ddec942-30ef-493d-98a4-eb4cf551e566'
p383
sS'csITpSocketNetmaskIPv6'
p384
S'db3263ff-fb2f-428b-a2c8-fb8d0cbdf321'
p385
sS'csITpSocketNetmaskIPv4'
p386
S'76a8b6d8-28a2-4d64-a931-dc72157491e8'
p387
sS'csITpChannelTypeStreamTubeNewLocalConnectionObserver'
p388
S'f3d23e60-bfb4-424a-be34-0ffca54a7ebd'
p389
sS'csITpChannelTypeStreamedMediaStreamErrorObserver'
p390
S'82736273-f024-44ea-8f68-634d4a0c3f5a'
p391
sS'csITpStatusSpecMap'
p392
S'81dcb2b2-a150-4670-ac3a-d5b8168f8a26'
p393
sS'csITpConnectionInterfaceLocationLocationAccessControlTypesCB'
p394
S'9c967d16-63e5-45ff-8cb8-514e00237774'
p395
sS'csITpChannelTypeFileTransferContentTypeCB'
p396
S'2a69d444-0cd2-4b09-9c91-e17b686879de'
p397
sS'csITpChannelDispatchOperationChannelsCB'
p398
S'5163efcf-59c5-47b3-9e20-063636790571'
p399
sS'csITpChannelTypeTextLostMessageObserver'
p400
S'94f9f2ee-f329-4132-ae45-1526293ad90e'
p401
sS'csITpChannelTypeFileTransferFileTransferStateChangedObserver'
p402
S'72fd865c-4087-43b3-b670-57657814ff1a'
p403
sS'csITpChannelTypeTubesGetStreamTubeSocketAddressCB'
p404
S'37fd7540-0e58-415f-9e34-48151aa42e73'
p405
sS'csITpConnectionInterfaceContactsGetContactAttributesCB'
p406
S'2ec1928d-fc46-44a1-9b3e-2200c1b49342'
p407
sS'csITpChannelInterfaceMessagesMessageReceivedObserver'
p408
S'd3385afb-9585-48d8-82c3-5fcbd1432eec'
p409
sS'csITpTubeInfo'
p410
S'fdb0c850-0877-46b0-8468-37ce5a1bcdf4'
p411
sS'csITpChannelInterfaceMessagesDeliveryReportingSupportCB'
p412
S'edae6d45-47a3-4dee-9e8a-aabd8da33d33'
p413
sS'csITpConnectionInterfaceAvatarsMinimumAvatarWidthCB'
p414
S'e71ce6ef-62b5-41be-a61a-9869b6c2db54'
p415
sS'csITpChannelTargetHandleCB'
p416
S'ee8503fd-b327-44e5-99b6-e18eef01862b'
p417
sS'csITpConnectionManagerRequestConnectionCB'
p418
S'3a120acf-f8ec-47c6-be26-ba843757e012'
p419
sS'csITpConnectionInterfaceRequestsChannelsCB'
p420
S'2ae9792f-64e5-4417-a1d7-29257276bdc5'
p421
sS'csITpConnectionInterfaceLocationLocationAccessControlCB'
p422
S'6ffe149c-7d1a-4522-a70d-542777a255f8'
p423
sS'csITpChannelInterfaceHoldGetHoldStateCB'
p424
S'6264516d-36ca-47e7-b40e-596d821a77b7'
p425
sS'csITpPendingTextMessage'
p426
S'87842e58-6e57-4057-99d3-244dc17bc4ae'
p427
sS'csITpConnectionGetProtocolCB'
p428
S'cbac415b-2808-4886-949a-b71970965b51'
p429
sS'csITpChannelTypeContactList'
p430
S'28046f0f-955e-475a-8766-a79239779cbe'
p431
sS'csITpChannelDispatchOperation'
p432
S'd4685488-aa0f-4711-adbd-a71f63c9ea0a'
p433
sS'csITpConnectionInterfacePresencePresenceUpdateObserver'
p434
S'40a621a3-ffdb-4dc8-bba2-2e40f0c962c5'
p435
sS'csITpChannelRequestedCB'
p436
S'1d18053f-bb25-4daf-97ed-e6cdafe74ba0'
p437
sS'csITpChannelInterfaceMessagesSendMessageCB'
p438
S'2ad47abb-0766-4b4f-ac16-38891026707c'
p439
sS'csITpConnectionInterfaceAliasingRequestAliasesCB'
p440
S'1fc75e20-d10d-4c9d-a96c-0914d0573e82'
p441
sS'csITpChannelTypeStreamedMediaStreamRemovedObserver'
p442
S'11e72177-11cb-4a54-8766-f8bc9ce6e758'
p443
sS'csITpConnectionInterfaceAvatarsMaximumAvatarHeightCB'
p444
S'c194da96-a14a-4c1a-810a-8c0840ecba9f'
p445
sS'csITpChannelInterfaceCallStateGetCallStatesCB'
p446
S'29ecbf17-a1ff-4a43-b9e6-7283143cf5e3'
p447
sS'csITpChannelInterfaceGroupAddMembersCB'
p448
S'be9bb8dc-06ca-4a33-89f0-c1f1681d8bf3'
p449
sS'csITpConnectionRequestChannelCB'
p450
S'ff2d7005-3c37-4b0d-92df-4d34df2e7acf'
p451
sS'csITpConnectionInterfaceSimplePresenceStatusesCB'
p452
S'4aca76bb-bd07-4950-962b-87800a5126dd'
p453
sS'csITpChannelTypeTextGetMessageTypesCB'
p454
S'f1f12989-1a14-41b7-8b79-816e1dd97b5b'
p455
sS'csITpConnectionHoldHandlesCB'
p456
S'8ee6f63f-a8ab-4143-aee2-bc95588a7853'
p457
sS'csITpConnectionInterfaceContactsContactAttributeInterfacesCB'
p458
S'1e06b010-cf7e-46c4-bc1c-a11b93ed0095'
p459
sS'csITpChannelRequestInterfacesCB'
p460
S'0748606a-ed92-4658-b12f-8b7018115ede'
p461
sS'csITpHandleOwnerMap'
p462
S'24843e3e-b168-4fe0-9c7f-9f6fbf7df78c'
p463
sS'csITpConnectionInterfaceContacts'
p464
S'3c5a2b36-154b-4c6e-a4af-af27ed2d1bd0'
p465
sS'csITpChannelInterfaceTubeParametersCB'
p466
S'357034cc-31f1-4ffc-8512-97bd9841b77b'
p467
sS'csITpChannelInterfaceGroupHandleOwnersCB'
p468
S'92e980b9-9fb0-4cb9-b429-c52f8becf943'
p469
sS'csITpChannelInterfaceGroupHandleOwnersChangedObserver'
p470
S'459f64b7-d82f-42aa-962d-c946dc9af3ac'
p471
sS'csITpAvatarTokenMap'
p472
S'31b1cb3d-0049-473f-9972-a784138cffd0'
p473
sS'csITpConnectionInterfaceSimplePresencePresencesChangedObserver'
p474
S'80a5f34c-fe86-4586-a10a-6b36404c82ab'
p475
sS'csITpChannelInterfaceGroupGetHandleOwnersCB'
p476
S'369ed356-14a9-487b-b632-0837e7efc8b8'
p477
sS'csITpChannelTypeTextAcknowledgePendingMessagesCB'
p478
S'1a2328fb-ff4b-4b5a-9dbb-f38bb4db6710'
p479
sS'csITpMediaSessionHandlerInfo'
p480
S'0072fe6c-a0e3-4fa9-8476-4f877e46cfdb'
p481
sS'csITpChannelInterfaceMediaSignallingNewSessionHandlerObserver'
p482
S'29a87c7c-cab1-47c5-959a-02b70ec895ae'
p483
sS'csITpChannelTypeStreamedMediaImmutableStreamsCB'
p484
S'0c909680-e8dd-4d21-8900-3dbd4c55f7f6'
p485
sS'csITpConnectionInterfaceRequestsRequestableChannelClassesCB'
p486
S'8c8e741e-6158-49d4-904e-4b2b87f42b1f'
p487
sS'csITpRoomInfo'
p488
S'8ad2b0d1-eb30-4eee-a21d-5ced9c19cb03'
p489
sS'csITpCapabilityChange'
p490
S'acf449c8-5b3b-4284-a136-785074b955b2'
p491
sS'csITpChannelRequest'
p492
S'399138b6-747c-4c07-9a76-dfe622670097'
p493
sS'csITpChannelRequestAccountCB'
p494
S'59f61b15-6371-44e5-a465-02a1f445d8c9'
p495
sS'csITpChannelTypeStreamTubeAcceptCB'
p496
S'a2ab3298-7bb8-4f8e-95c4-3a92ed862092'
p497
sS'csITpLocalPendingInfo'
p498
S'28f1fc09-3e47-4940-9f57-8f7275a4c958'
p499
sS'csITpChannelTypeTubesOfferStreamTubeCB'
p500
S'a75a84b0-1660-40db-b765-ca5bd1aa3a0c'
p501
sS'csITpChannelInterfaceTubeStateCB'
p502
S'248ce80e-b77d-4931-8a3e-86f679c56e28'
p503
sS'csITpChannelInterfaceMessagesMessagePartSupportFlagsCB'
p504
S'7e1bf0c1-8d74-4b24-b4a8-70a0ef8d8790'
p505
sS'csITpConnectionInterfaceRequestsChannelClosedObserver'
p506
S'84850b14-3724-4d9a-9026-0530aeb92f29'
p507
sS'csITpChannelRequestProceedCB'
p508
S'e9cd6488-5e44-4770-84fa-23ede25b66cc'
p509
sS'csITpChannelDispatcherInterfaceOperationList'
p510
S'afd91d37-1e3e-423a-910f-b9bc3b608096'
p511
sS'csITpChannelTypeTubesTubeStateChangedObserver'
p512
S'07285633-3dd9-481e-a60c-8982fd256348'
p513
sS'csITpConnectionInterfaceAvatars'
p514
S'e1d5319a-e2db-4dfa-8bbd-55dc8d093595'
p515
sS'csITpQualifiedPropertyValueMap'
p516
S'be7cf0f9-edb4-4561-bccf-afe9d35adf95'
p517
sS'csITpConnectionInterfaceRequests'
p518
S'c4ce4601-ccd6-47aa-975e-0bfa72fd835f'
p519
sS'csITpChannelInterfaceChatStateSetChatStateCB'
p520
S'6f0fc067-617a-47bd-96ff-447faf56a212'
p521
sS'csITpChannelInterfaceCallStateCallStateChangedObserver'
p522
S'823ad299-867f-48fc-995e-f749f22726ea'
p523
sS'csITpConnectionSelfHandleCB'
p524
S'029e9ea2-346d-4fa4-8007-940d49402960'
p525
sS'csITpChannelInterfacePasswordProvidePasswordCB'
p526
S'fd2266f0-349d-48d9-ace1-52b09ac72b3f'
p527
sS'csITpChannelInterfaceDestroyable'
p528
S'f1111b5a-b8ac-4f5e-a82b-92fa4b98f96e'
p529
sS'csITpConnectionInterfacePresenceGetPresenceCB'
p530
S'6ae48dd6-013e-4492-83b8-62ca55a13f1b'
p531
sS'csITpChannelInterfaceGroup'
p532
S'b1ebfeda-0f62-47a2-86b8-4bbb9323b6f9'
p533
sS'csITpChannelInterfacesCB'
p534
S'df62ca79-7e9b-4e86-b621-9776dcc7c5eb'
p535
sS'csITpConnectionInterfaceAvatarsSetAvatarCB'
p536
S'85c3a325-eaa4-4cda-83a5-d85318097cf4'
p537
sS'csITpChannelTypeFileTransferDescriptionCB'
p538
S'917c2246-22f0-42a0-9d04-5edb34207f35'
p539
sS'csITpChannelTypeDBusTube'
p540
S'05850e94-a896-4a65-87d5-643a443d8976'
p541
sS'csITpConnectionInterfacePresenceRequestPresenceCB'
p542
S'e60cb3f8-62a7-40cd-bfaf-24a2f6a347f6'
p543
sS'csITpConnectionInterfaceLocationSetLocationCB'
p544
S'f4c48ed5-088d-4875-9ee8-b479c8476b07'
p545
sS'csITpRequestableChannelClass'
p546
S'f644b57d-e4db-4572-9260-db35ed4b6b0b'
p547
sS'csITpChannelTypeTextReceivedObserver'
p548
S'2118d560-fe64-46ae-9ecf-5a0e1f2d4035'
p549
sS'csITpStringVariantMap'
p550
S'ce7e68c5-428c-43d4-88c8-5316d5ab448c'
p551
sS'csITpStringStringMap'
p552
S'd385d279-7875-48a0-8a8c-6bf6e9620cd9'
p553
sS'csITpChannelRequestUserActionTimeCB'
p554
S'f726ce98-233b-41fb-8e2a-5524b4e6cc9a'
p555
sS'csITpAliasMap'
p556
S'c1d72fa2-497b-473b-827d-d0c22d657a98'
p557
sS'csITpConnectionInterfacePresenceAddStatusCB'
p558
S'a3631624-bb12-466a-b302-3cb0ea82fada'
p559
sS'csITpChannelTypeFileTransferAvailableSocketTypesCB'
p560
S'ca19bb47-7228-4e10-9a19-8324c28a3b38'
p561
sS'csITpContactPresences'
p562
S'7ae9499b-d067-4fc6-aaea-4ace78561907'
p563
sS'csITpConnectionInspectHandlesCB'
p564
S'05210791-caee-4257-a255-34e6404c8152'
p565
sS'csITpConnectionInterfaceLocationRequestLocationCB'
p566
S'0e741605-3529-48d0-829b-a74e439f1fc2'
p567
sS'csITpConnectionInterfaceAvatarsGetKnownAvatarTokensCB'
p568
S'af4bd504-1f59-4e39-a088-af934f7371bd'
p569
sS'csITpChannelRequestSucceededObserver'
p570
S'50bdfa87-a7cf-4141-a137-12d5f649a4e2'
p571
sS'csITpChannelTypeRoomListGotRoomsObserver'
p572
S'9267b30f-f0b9-49ab-8433-117a5bfa85d1'
p573
sS'csITpDispatchOperationDetails'
p574
S'8379ab4c-d6da-4336-9e0b-0028f442fdfd'
p575
sS'csITpChannelTypeTubesStreamTubeNewConnectionObserver'
p576
S'e97258d8-bb4f-4783-bb22-5271dec4fc90'
p577
sS'csITpChannelGetHandleCB'
p578
S'39ba91af-9a0a-4c4e-8722-3035ab085274'
p579
sS'csITpChannelDispatchOperationAccountCB'
p580
S'4344d38e-91de-4b4e-8d71-16819d57592e'
p581
sS'csITpChannelDispatcherEnsureChannelCB'
p582
S'df5b4feb-4496-4402-8e7c-884bcd0bca7d'
p583
sS'csITpChannelInterfaceGroupGetLocalPendingMembersCB'
p584
S'00b26caa-c750-433d-8ad2-c034a6d502d7'
p585
sS'csITpChannelTypeTubesGetDBusNamesCB'
p586
S'e99e96ed-01d2-4ca6-a81e-75785e938f97'
p587
sS'csITpConnectionInterfaceContactCapabilitiesGetContactCapabilitiesCB'
p588
S'5a651cad-b043-4b3f-b0c0-6f67547171f1'
p589
sS'csITpChannelDispatcher'
p590
S'b070f6f5-4882-4421-89c8-6772f25e7812'
p591
sS'csITpDBusTubeMember'
p592
S'0e6ac3ae-6bc6-4908-beca-126c965a4569'
p593
sS'csITpChannelInterfaceGroupSelfHandleChangedObserver'
p594
S'ca9a0265-112f-44fb-86e4-c3bb1c565609'
p595
sS'csITpChannelClosedObserver'
p596
S'dfd0e5b8-2cf7-44bb-a2f7-6e05b349c4c1'
p597
sS'csITpChannelInterfaceDTMF'
p598
S'f4263b6b-e4bb-4818-970c-d5ffe3ae4460'
p599
sS'csITpChannelTypeTextSendCB'
p600
S'ad28c66c-0d38-466a-bd95-395f5d90b14e'
p601
sS'csITpChannelTypeStreamedMediaInitialAudioCB'
p602
S'bf35ae8b-41b1-48f4-9431-e5293d289349'
p603
sS'csITpChannelDispatcherInterfacesCB'
p604
S'0ef69099-d85e-40be-ad9a-d7391ff1b115'
p605
sS'csITpConnectionInterfaceLocationLocationUpdatedObserver'
p606
S'12998d66-5441-43cb-ba30-932e003a00fe'
p607
sS'csITpChannelTypeFileTransferSizeCB'
p608
S'0baa4279-b30b-49b5-a0a1-7fcc4454f628'
p609
sS'csITpConnectionGetStatusCB'
p610
S'8537baa4-269e-471b-a439-a46c4a0d1b3f'
p611
sS'csITpChannelTypeStreamedMediaListStreamsCB'
p612
S'9bac867b-6a00-4d3a-a739-8b7fc6d3e240'
p613
sS'csITpConnectionGetSelfHandleCB'
p614
S'bca8fd6a-a7a9-47ac-997b-f77289dad777'
p615
sS'csITpChannelTypeDBusTubeAcceptCB'
p616
S'cf932a36-429c-4050-83dd-1868feaab52c'
p617
sS'csITpConnectionInterfaceAvatarsAvatarUpdatedObserver'
p618
S'95c1d42c-a5a3-4f9b-9a5c-8666f5eed30f'
p619
sS'csITpConnectionInterfaceAvatarsRequestAvatarsCB'
p620
S'8dc9223c-d715-4922-a5a7-3c47028799a7'
p621
sS'csITpConnectionInterfaceCapabilities'
p622
S'1e57bb55-e9bb-4d52-89b7-1c7e0f95bfa3'
p623
sS'csITpAliasPair'
p624
S'4e4bf3e8-6d46-4f18-a44e-5abc3ba24db4'
p625
sS'csITpConnectionInterfaceCapabilitiesGetCapabilitiesCB'
p626
S'4efa520d-5f73-4add-b0ea-0e204909a989'
p627
sS'csITpChannelTypeRoomListListingRoomsObserver'
p628
S'4b96c72e-7237-45ef-b9b4-15772f9385e6'
p629
sS'csITpChannelTypeDBusTubeDBusNamesChangedObserver'
p630
S'37b520a6-6aae-40e2-9438-6317ce8e0f99'
p631
sS'csITpChannelTypeFileTransferInitialOffsetDefinedObserver'
p632
S'39f8b3e8-7790-48a1-bff2-1f9fa445bcee'
p633
sS'csITpHandleIdentifierMap'
p634
S'057f8d4d-48ad-4edd-a545-db750e8a58ba'
p635
sS'csITpChannelTypeStreamTubeNewRemoteConnectionObserver'
p636
S'd62dfd09-a9e1-44cf-bd74-ba7d25fba853'
p637
s.(dp1
S'csITpChannelChannelTypeCB'
p2
S'd69ccf79-bd29-40f3-a3cd-f18d349c3af9'
p3
sS'csITpSimpleStatusSpec'
p4
S'60376cd0-b358-47ce-bf8f-12fb2fe880e0'
p5
sS'csITpHandleIdentifierMap'
p6
S'057f8d4d-48ad-4edd-a545-db750e8a58ba'
p7
sS'csITpConnectionInterfaceAliasingSetAliasesCB'
p8
S'1c68b201-3957-46fe-b211-67acca30c1f5'
p9
sS'csITpContactAttributesMap'
p10
S'47fd5566-0f28-4ce8-8194-8727ff7bb099'
p11
sS'csITpChannelInterfaceGroupRemoveMembersWithReasonCB'
p12
S'a8b4e040-f7fe-4514-ada0-284d399ebf94'
p13
sS'csITpChannelTypeDBusTubeAcceptCB'
p14
S'cf932a36-429c-4050-83dd-1868feaab52c'
p15
sS'csITpChannelInfo'
p16
S'4b261fef-f372-4f50-97c5-8460654c3cd4'
p17
sS'csITpChannelTypeFileTransferAvailableSocketTypesCB'
p18
S'ca19bb47-7228-4e10-9a19-8324c28a3b38'
p19
sS'csITpConnectionInterfaceLocationLocationAccessControlCB'
p20
S'6ffe149c-7d1a-4522-a70d-542777a255f8'
p21
sS'csITpConnection'
p22
S'932bf60c-de2b-4a3f-a6e0-ac3fcaec3944'
p23
sS'csITpChannelDispatcherCreateChannelCB'
p24
S'bdd13f79-1e43-4a8c-b4e8-1fc604201a74'
p25
sS'csITpConnectionInterfaceAvatarsSetAvatarCB'
p26
S'85c3a325-eaa4-4cda-83a5-d85318097cf4'
p27
sS'csITpSocketAddressIPv6'
p28
S'e418fc7f-00d7-43d8-875d-e180bc7ad989'
p29
sS'csITpChannelTypeFileTransferAcceptFileCB'
p30
S'c296285a-d376-4388-b5a4-f1affae5edb8'
p31
sS'csITpSocketAddressIPv4'
p32
S'516c7f4e-6d74-452e-ac7c-867e417c38db'
p33
sS'csITpChannelTypeFileTransferInitialOffsetCB'
p34
S'0bd91f17-5c41-47c6-bf2d-63e96785fb35'
p35
sS'csITpChannelInterfaceGroupGetGroupFlagsCB'
p36
S'e9a79dd7-a88a-4a85-a770-defa0daaa4a8'
p37
sS'csITpParamSpec'
p38
S'5bf939ea-a468-47df-93d4-4b67239c69a8'
p39
sS'csITpChannelTypeFileTransferTransferredBytesCB'
p40
S'0ed1c06c-ddb9-4d50-a667-1365241caada'
p41
sS'csITpConnectionInterfaceCapabilities'
p42
S'1e57bb55-e9bb-4d52-89b7-1c7e0f95bfa3'
p43
sS'csITpConnectionInterfacePresenceGetStatusesCB'
p44
S'fdfb3614-9f52-46bc-abb3-f3cb6c1c285c'
p45
sS'csITpChannelTypeTubesTubeClosedObserver'
p46
S'72e9bccb-ad16-4645-acf1-d9a001710f3c'
p47
sS'csITpChannelTypeStreamTubeServiceCB'
p48
S'17735a82-4f14-4d0a-83a4-b941db2f21d7'
p49
sS'csITpConnectionStatusChangedObserver'
p50
S'615cf5e4-0f00-4d33-879e-d601647d9e22'
p51
sS'csITpConnectionInterfaceSimplePresence'
p52
S'a4154510-42c4-4502-b8de-36b4cee00e50'
p53
sS'csITpRichPresenceAccessControl'
p54
S'489928ee-e350-4b4b-aa8a-3e58ec33ab32'
p55
sS'csITpChannelInterfaceMediaSignalling'
p56
S'8cc1befa-6e30-46de-9c80-f33609bc2c78'
p57
sS'csITpChannelInterfaceGroupGetLocalPendingMembersWithInfoCB'
p58
S'56309922-b453-4efa-99a7-6b464f31246d'
p59
sS'csITpChannelTargetIDCB'
p60
S'c155776e-8c57-4b2d-a1ae-4e3ac69b463d'
p61
sS'csITpConnectionGetSelfHandleCB'
p62
S'bca8fd6a-a7a9-47ac-997b-f77289dad777'
p63
sS'csITpConnectionInterfaceContactCapabilitiesUpdateCapabilitiesCB'
p64
S'5229a620-12ce-4482-a91d-75f28dfa69db'
p65
sS'csITpConnectionInterfaceAvatarsAvatarRetrievedObserver'
p66
S'eefa7345-4eef-445a-99c4-fdda4b95c54f'
p67
sS'csITpConnectionInterfaceAvatarsSupportedAvatarMIMETypesCB'
p68
S'21dbf20f-e8ad-4499-8784-a5dfaf656a41'
p69
sS'csITpChannelDetails'
p70
S'c2a7dfef-23cd-4e93-ab3a-c7b534f5edfc'
p71
sS'csITpConnectionManager'
p72
S'7ca75da7-b635-4372-ac7f-32b6240d00b6'
p73
sS'csITpLocation'
p74
S'89e40a4c-1b48-4dfa-bdda-c3479d8602b4'
p75
sS'csITpConnectionInterfaceSimplePresenceSetPresenceCB'
p76
S'efcb0931-6fa8-4b1f-8149-0dadee7b3040'
p77
sS'csITpConnectionInterfaceRequestsNewChannelsObserver'
p78
S'2062f993-3a8b-4b54-9547-a6dd5000ffe0'
p79
sS'csITpChannelInterfaceGroupMembersChangedDetailedObserver'
p80
S'6ede183a-c0d7-4d44-aea3-eb25c11d53e4'
p81
sS'csITpConnectionGetInterfacesCB'
p82
S'15ae71e3-baad-4d45-a65c-9e36f8161cea'
p83
sS'csITpChannelTypeTubesAcceptDBusTubeCB'
p84
S'8ff93c6c-fbf1-4d63-b043-bba347dbaa6f'
p85
sS'csITpChannelGetInterfacesCB'
p86
S'84649758-087d-480d-8b72-1e4d1fad8687'
p87
sS'csITpChannelInterfaceTubeTubeChannelStateChangedObserver'
p88
S'4d423f0a-4d45-42c1-9659-e357a2cd28aa'
p89
sS'csITpConnectionInterfaceLocation'
p90
S'90b49e4f-690c-4d2c-8b53-5bad71160b84'
p91
sS'csITpConnectionInterfaceAvatarsGetAvatarRequirementsCB'
p92
S'70eab6a1-7492-49d5-8ffd-96b1567a0f80'
p93
sS'csITpChannelInterfaceGroupGetAllMembersCB'
p94
S'524ba9ed-4fd4-4765-80cc-9a8969d027b8'
p95
sS'csITpConnectionConnectionErrorObserver'
p96
S'6533dda1-9e42-4910-8050-3aca3fecbcfb'
p97
sS'csITpChannelInterfaceGroupLocalPendingMembersCB'
p98
S'7e358315-8062-4edb-a864-6562beb9cd99'
p99
sS'csITpConnectionInterfaceAvatarsMaximumAvatarWidthCB'
p100
S'18a5acb9-6e34-4b1f-a6af-d04b621ccc59'
p101
sS'csITpChannelTypeFileTransferContentHashTypeCB'
p102
S'04456906-337f-4893-b111-b3b9eeae782f'
p103
sS'csITpChannelInterfaceGroupRemoveMembersCB'
p104
S'4a0920ba-1e2b-44ed-9ded-c47148bc74b3'
p105
sS'csITpConnectionInterfaceAliasingGetAliasFlagsCB'
p106
S'53f1ce3f-914c-48ef-b134-ee3d9c870e01'
p107
sS'csITpConnectionReleaseHandlesCB'
p108
S'ec8e0ad5-1522-4158-ab7e-242ccd4e0cc1'
p109
sS'csITpConnectionInterfaceLocationGetLocationsCB'
p110
S'860576cf-804a-40df-bc27-3c4f011ac034'
p111
sS'csITpChannelTypeStreamedMediaStreamStateChangedObserver'
p112
S'6ee4654e-b867-494f-b271-fe71d2da83ee'
p113
sS'csITpMessagePart'
p114
S'ddfd3728-0372-4553-b290-920b06076e55'
p115
sS'csITpChannelInterfaceDestroyableDestroyCB'
p116
S'0747ad53-5613-448a-96cd-bdfb66e3c770'
p117
sS'csITpConnectionInterfaceRequestsChannelClosedObserver'
p118
S'84850b14-3724-4d9a-9026-0530aeb92f29'
p119
sS'csITpChannelInterfaceMessagesMessageSentObserver'
p120
S'7c01333c-843b-4ff9-a924-60ec1dfd3958'
p121
sS'csITpConnectionInterfaceAvatarsMaximumAvatarBytesCB'
p122
S'cdcee3ce-69e0-4b91-b218-b00adb34bc65'
p123
sS'csITpChannelInterfaceGroupGroupFlagsCB'
p124
S'e207d0ae-97af-490c-b1db-ca9f0168598e'
p125
sS'csITpChannelInterfaceCallState'
p126
S'397ff6e4-c8ff-4b5c-a56c-7f23383d866c'
p127
sS'csITpChannelCloseCB'
p128
S'f2d05593-17d7-42dd-8cba-a710a8ea5452'
p129
sS'csITpChannelTypeRoomListGetListingRoomsCB'
p130
S'b281862e-711d-41fa-b21b-aa27e98e7086'
p131
sS'csITpChannelDispatchOperationClaimCB'
p132
S'cb11e837-4c85-4b6b-b00f-32d365dc94bb'
p133
sS'csITpConnectionManagerListProtocolsCB'
p134
S'4427a022-9073-44ca-a2a3-90dfbb7bd924'
p135
sS'csITpConnectionInterfaceContacts'
p136
S'3c5a2b36-154b-4c6e-a4af-af27ed2d1bd0'
p137
sS'csITpHandlerCapabilities'
p138
S'a317630a-673f-4917-9454-8e413840a807'
p139
sS'csITpChannel'
p140
S'ed4d4d80-0a59-4d98-9309-7fdbe2c57846'
p141
sS'csITpConnectionInterfaceCapabilitiesCapabilitiesChangedObserver'
p142
S'5188eebc-9f1e-4f91-b2f5-2b71247ad6b7'
p143
sS'csITpChannelInitiatorIDCB'
p144
S'6318ea77-4bac-41d2-9b12-875ea40d7531'
p145
sS'csITpConnectionConnectCB'
p146
S'00a50005-c990-4cfc-9d70-0a5f5a95f9df'
p147
sS'csITpConnectionManagerInterfacesCB'
p148
S'95bf4b4b-264d-49bc-8a4a-6ff11cf5fa8c'
p149
sS'csITpChannelInterfaceMessagesGetPendingMessageContentCB'
p150
S'f048ad8a-ce60-49ff-8013-348413365442'
p151
sS'csITpStatusSpec'
p152
S'fdbd3109-5266-4a9c-ae1a-12a1ad1c42b4'
p153
sS'csITpChannelTypeDBusTubeDBusNamesCB'
p154
S'f7e9586f-7e60-4e05-bd0d-84ee2183efdb'
p155
sS'csITpChannelTypeDBusTubeSupportedAccessControlsCB'
p156
S'032b9d8f-4829-4414-9fe8-4f825819e041'
p157
sS'csITpSimpleStatusSpecMap'
p158
S'ddf2166e-2cef-46ee-84b4-394ba26c59b3'
p159
sS'csITpChannelTypeTubes'
p160
S'8877528c-d8c8-4494-b878-53b440b450a1'
p161
sS'csITpConnectionInterfaceAvatarsRecommendedAvatarHeightCB'
p162
S'3cd4c932-da34-4b15-b8c4-75d7a1b33392'
p163
sS'csITpConnectionInterfaceAvatarsRequestAvatarCB'
p164
S'b167fc72-ff04-44f5-aee9-ce6994c6b26e'
p165
sS'csITpConnectionInterfaceAliasing'
p166
S'ed02ee4e-bfec-4784-8255-7ec19935d073'
p167
sS'csITpCapabilityPair'
p168
S'22591172-a0d5-400f-8e5a-59716da4941a'
p169
sS'csITpConnectionInterfaceAvatarsMinimumAvatarHeightCB'
p170
S'c8b97b55-e506-4c8e-bc3e-c9444894cc4a'
p171
sS'csITpChannelTypeStreamedMediaImmutableStreamsCB'
p172
S'0c909680-e8dd-4d21-8900-3dbd4c55f7f6'
p173
sS'csITpChannelTypeTubesNewTubeObserver'
p174
S'8a26f7b2-737e-44b1-9680-a0472aca094e'
p175
sS'csITpConnectionInspectHandlesCB'
p176
S'05210791-caee-4257-a255-34e6404c8152'
p177
sS'csITpConnectionInterfaceRequestsEnsureChannelCB'
p178
S'cb9c518d-9f04-4804-bf4f-eacb74903b70'
p179
sS'csITpChannelTypeStreamedMediaStreamDirectionChangedObserver'
p180
S'28edcb8d-b39e-4185-ac51-bfdc4632ea33'
p181
sS'csITpDBusTubeParticipants'
p182
S'49e4a0e3-5f02-48b1-9e89-8f9a56caf9e8'
p183
sS'csITpContactCapability'
p184
S'c26430db-79c5-4995-88e0-25887e8c98eb'
p185
sS'csITpConnectionInterfaceAliasingGetAliasesCB'
p186
S'8500770c-54e2-459e-abc3-7edcfc69f9e0'
p187
sS'csITpChannelTypeStreamedMediaRequestStreamDirectionCB'
p188
S'd40e3a7f-c135-4208-8749-aa0a2888c510'
p189
sS'csITpChannelTypeRoomListServerCB'
p190
S'26821114-0b95-4338-9bfc-17f4523fefac'
p191
sS'csITpChannelDispatcherInterfaceOperationListNewDispatchOperationObserver'
p192
S'731d1198-2780-4e5b-8132-808e69e96dcf'
p193
sS'csITpChannelTypeTubesGetDBusTubeAddressCB'
p194
S'e717087b-9bbc-48c6-8feb-96a512eac361'
p195
sS'csITpChannelTypeStreamedMedia'
p196
S'5128cb80-6703-4d74-9b8f-9ca3574939ae'
p197
sS'csITpChannelDispatchOperationHandleWithCB'
p198
S'0d75350c-99f0-4b18-8a88-78f1b9b989d4'
p199
sS'csITpMultipleStatusMap'
p200
S'c67bee5b-e1c6-4a5b-b9be-ea9db712eb5c'
p201
sS'csITpChannelTypeFileTransferFilenameCB'
p202
S'ef4ccea8-8b6f-412b-bb96-e23deb71848d'
p203
sS'csITpChannelInterfacePasswordGetPasswordFlagsCB'
p204
S'fa751f0a-c3bc-4468-86ca-52f698bd733d'
p205
sS'csITpChannelTypeStreamedMediaRequestStreamsCB'
p206
S'a4d5c58a-67b6-4f4b-930d-03cb94d8abea'
p207
sS'csITpChannelDispatchOperationInterfacesCB'
p208
S'3ca5c3d7-1d23-4e08-98dc-2b38573964f1'
p209
sS'csITpConnectionInterfacePresenceClearStatusCB'
p210
S'33d95c14-f329-4c01-8abf-dfed93461f61'
p211
sS'csITpChannelDispatchOperationConnectionCB'
p212
S'aa35f9cd-19a5-4132-9167-e74319e3fdfd'
p213
sS'csITpChannelInterfaceMessagesMessagePartSupportFlagsCB'
p214
S'7e1bf0c1-8d74-4b24-b4a8-70a0ef8d8790'
p215
sS'csITpChannelTypeFileTransferDateCB'
p216
S'f006e758-63cb-4732-a2db-dfa8c48610ae'
p217
sS'csITpChannelRequestFailedObserver'
p218
S'a6380a6b-3574-4f82-96d7-6f3d52eb0030'
p219
sS'csITpConnectionInterfaceSimplePresenceGetPresencesCB'
p220
S'35a4ec1a-34a8-4fcd-9ea3-b293eeb9b8f2'
p221
sS'csITpConnectionInterfaceAvatarsClearAvatarCB'
p222
S'dd84b54a-cd2d-4e01-b23c-3edcc1bf7cdb'
p223
sS'csITpSimpleContactPresences'
p224
S'66b8308a-524c-4b4d-b0f3-39d1da7ca177'
p225
sS'csITpChannelInterfaceGroupRemotePendingMembersCB'
p226
S'049e1650-4b68-4795-b4c0-a4800cf42940'
p227
sS'csITpChannelTypeDBusTubeServiceNameCB'
p228
S'125bd0d2-9d1a-4010-8541-f4c52926d2a6'
p229
sS'csITpChannelTypeStreamedMediaRemoveStreamsCB'
p230
S'3d9abbf0-bf45-408c-8e96-5b95467b952c'
p231
sS'csITpChannelTypeTextListPendingMessagesCB'
p232
S'50051a43-1a6f-4cc0-9ac6-150589b3b626'
p233
sS'csITpChannelDispatchOperationFinishedObserver'
p234
S'657fda3b-21ed-49ca-b513-33bd216bea48'
p235
sS'csITpChannelInterfaceGroupGetMembersCB'
p236
S'f41834aa-1780-42f4-8bad-5cadf8570488'
p237
sS'csITpConnectionInterfaceContactCapabilitiesContactCapabilitiesChangedObserver'
p238
S'ab6476d1-a5f1-4cd0-bdec-8abc96b88de5'
p239
sS'csITpChannelTypeStreamTube'
p240
S'409fa642-3970-4249-881e-ded5db0453cf'
p241
sS'csITpChannelTypeTubesListTubesCB'
p242
S'3668305f-ea6a-4ab7-b2f9-d8bffdf7ceab'
p243
sS'csITpConnectionInterfaceSimplePresencePresencesChangedObserver'
p244
S'80a5f34c-fe86-4586-a10a-6b36404c82ab'
p245
sS'csITpChannelTypeStreamedMediaStreamRemovedObserver'
p246
S'11e72177-11cb-4a54-8766-f8bc9ce6e758'
p247
sS'csITpConnectionInterfaceAvatarsGetAvatarTokensCB'
p248
S'34480697-4dce-4a79-a447-d25831a5a8dd'
p249
sS'csITpConnectionInterfacePresenceRequestPresenceCB'
p250
S'e60cb3f8-62a7-40cd-bfaf-24a2f6a347f6'
p251
sS'csITpConnectionNewChannelObserver'
p252
S'07dfc4ae-f7a8-444e-ade0-f4f29ca7293d'
p253
sS'csITpChannelInterfaceChatStateChatStateChangedObserver'
p254
S'3c44ded2-ca2a-437e-8f0d-5ccb70441c1c'
p255
sS'csITpChannelTypeTubesOfferDBusTubeCB'
p256
S'455ce4d4-8f7e-4ae6-b4f0-5d14f0a2bb02'
p257
sS'csITpConnectionInterfaceAvatarsRecommendedAvatarWidthCB'
p258
S'15479d81-c2ad-469a-9585-e0aae62fe4fe'
p259
sS'csITpChannelInterfaceGroupGroupFlagsChangedObserver'
p260
S'00ac9c77-c597-41b3-8154-547d37696bc8'
p261
sS'csITpChannelTypeRoomList'
p262
S'8cf79dd9-9a4e-4306-b01c-06a08b71a102'
p263
sS'csITpConnectionInterfaceRequestsCreateChannelCB'
p264
S'4d7979f7-3cca-4c42-b8cd-275939f1dd79'
p265
sS'csITpConnectionInterfaceAliasingAliasesChangedObserver'
p266
S'5c0a3b03-b138-40ab-a7e3-ed79835f1e6b'
p267
sS'csITpChannelTypeText'
p268
S'495e071a-432a-49bd-84f6-fa8df73b6723'
p269
sS'csITpConnectionInterfaceAvatarsGetKnownAvatarTokensCB'
p270
S'af4bd504-1f59-4e39-a088-af934f7371bd'
p271
sS'csITpChannelInitiatorHandleCB'
p272
S'3d6b535b-c81a-46b9-9af9-23f84da8f9ea'
p273
sS'csITpChannelInterfaceMessages'
p274
S'26127862-4801-49e4-b424-29a5c2e97ce0'
p275
sS'csITpChannelTypeTubesAcceptStreamTubeCB'
p276
S'b58f02c6-9d90-46b1-82c1-1baee3ac2872'
p277
sS'csITpChannelClass'
p278
S'94abaffa-a1f6-404e-ac27-2ebfa0a2d353'
p279
sS'csITpConnectionInterfacePresenceSetLastActivityTimeCB'
p280
S'1acf7e86-3422-4acb-9fbc-3148aa20f631'
p281
sS'csITpSimplePresence'
p282
S'e1b2e533-d200-4c35-aeb5-1b18623963c5'
p283
sS'csITpContactLocations'
p284
S'b6b42789-ca06-442a-93b9-17831ba12bb4'
p285
sS'csITpConnectionDisconnectCB'
p286
S'1bcf2254-e526-44c8-836f-f65d475a202f'
p287
sS'csITpChannelTypeDBusTubeOfferCB'
p288
S'd4aebff4-ecc9-4a22-921f-dfe25ff463d6'
p289
sS'csITpChannelDispatchOperationPossibleHandlersCB'
p290
S'9c743a11-c5d1-4558-9b99-090118512ee6'
p291
sS'csITpChannelTypeTubesGetAvailableTubeTypesCB'
p292
S'76d56a54-6209-4037-bf35-072d044ab118'
p293
sS'csITpChannelDispatcherInterfaceOperationListDispatchOperationFinishedObserver'
p294
S'6a88703b-4e1f-4bed-ad5d-0eab7a5af403'
p295
sS'csITpChannelTypeTubesDBusNamesChangedObserver'
p296
S'6fb30277-4f4d-41b3-9220-b6b1f7260d99'
p297
sS'csITpChannelTypeTubesCloseTubeCB'
p298
S'95840bf4-80f9-4933-8fd5-3f3b314a5eeb'
p299
sS'csITpChannelTypeFileTransfer'
p300
S'9787e367-0374-4bb4-9aad-eed7944bb077'
p301
sS'csITpChannelTypeStreamTubeSupportedSocketTypesCB'
p302
S'1bb1e48b-5f2e-4a22-9341-ce324e935e8a'
p303
sS'csITpContactCapabilitiesMap'
p304
S'2a67d3fa-fe00-4b07-9e02-a7989dfbe4e2'
p305
sS'csITpAvatarTokenMap'
p306
S'31b1cb3d-0049-473f-9972-a784138cffd0'
p307
sS'csITpChannelDispatchOperationChannelLostObserver'
p308
S'4c06fbe3-a8f1-4bba-8398-3eee8a58dbc9'
p309
sS'csITpConnectionManagerNewConnectionObserver'
p310
S'dfa755f1-8d29-448d-b08d-8d1f241c9e0b'
p311
sS'csITpChannelTypeStreamedMediaStreamAddedObserver'
p312
S'9fedd6b4-26e9-4caf-a5e9-78da990496e5'
p313
sS'csITpChannelTypeTubesGetAvailableStreamTubeTypesCB'
p314
S'68319d93-0ffc-4f3f-a273-bfa086490c36'
p315
sS'csITpConnectionListChannelsCB'
p316
S'7fa3d093-6933-458d-9254-e001b37f2927'
p317
sS'csITpChannelInterfaceGroupGetRemotePendingMembersCB'
p318
S'd49ca39c-06bd-4fac-897d-4e292e6bfe11'
p319
sS'csITpSocketAddressIP'
p320
S'bac798ca-8677-43c8-93df-2b793094abc9'
p321
sS'csITpChannelTypeFileTransferTransferredBytesChangedObserver'
p322
S'3464465f-0257-4d39-ba4b-36c4df9ec90c'
p323
sS'csITpChannelTypeFileTransferStateCB'
p324
S'999ab74c-e7ab-4b13-b31e-bcf13460b9df'
p325
sS'csITpChannelInterfaceGroupMembersChangedObserver'
p326
S'9251234d-bb79-40b5-b072-96587b1524ff'
p327
sS'csITpChannelTypeFileTransferProvideFileCB'
p328
S'19a13ef1-f818-4fbc-90c4-dc1ef7664539'
p329
sS'csITpConnectionInterfacePresencePresenceUpdateObserver'
p330
S'40a621a3-ffdb-4dc8-bba2-2e40f0c962c5'
p331
sS'csITpMediaStreamInfo'
p332
S'4f186877-05f1-4f8a-b32b-017aa695c637'
p333
sS'csITpChannelInterfaceMessagesPendingMessagesRemovedObserver'
p334
S'e0701126-fa78-4762-8269-855ddd49df3f'
p335
sS'csITpConnectionInterfacePresenceRemoveStatusCB'
p336
S'af65c290-b17b-49d0-8cbd-2cf204d9d6a1'
p337
sS'csITpChannelTypeStreamedMediaInitialVideoCB'
p338
S'9966f8c0-2f72-4efb-9970-823a474f9a38'
p339
sS'csITpChannelInterfacePassword'
p340
S'bc79b0e8-d879-4aaa-bc0d-8ecb6a3a3bb9'
p341
sS'csITpChannelTypeRoomListStopListingCB'
p342
S'54621841-70f7-426f-b143-81d14bc9567f'
p343
sS'csITpConnectionInterfacePresence'
p344
S'7db8ae34-d94c-4d1d-b417-7f695bd0e502'
p345
sS'csITpChannelGetChannelTypeCB'
p346
S'cefee160-8b31-40f6-af07-76707108ec43'
p347
sS'csITpConnectionInterfaceCapabilitiesAdvertiseCapabilitiesCB'
p348
S'391092ea-f395-4653-94ae-91744fad6e8e'
p349
sS'csITpChannelInterfaceMessagesPendingMessagesCB'
p350
S'2f29b7c8-abaf-491a-bd0f-10b9b0c870b1'
p351
sS'csITpChannelInterfaceHoldHoldStateChangedObserver'
p352
S'b3a010a4-8bba-4f54-9f76-aac227a57685'
p353
sS'csITpConnectionSelfHandleChangedObserver'
p354
S'6018f12b-9a0f-402c-93cc-5f902d507171'
p355
sS'csITpAliasPair'
p356
S'4e4bf3e8-6d46-4f18-a44e-5abc3ba24db4'
p357
sS'csITpStringVariantMap'
p358
S'ce7e68c5-428c-43d4-88c8-5316d5ab448c'
p359
sS'csITpLastActivityAndStatuses'
p360
S'4a15dfdc-8136-49b7-a4eb-a5aa9a74f9a6'
p361
sS'csITpChannelInterfaceGroupMembersCB'
p362
S'f34e5087-af77-4f69-9131-62095cfe124c'
p363
sS'csITpSingleContactAttributesMap'
p364
S'8e5c4221-5e27-45e4-b1bf-6f607ffca9cb'
p365
sS'csITpChannelTypeStreamTubeOfferCB'
p366
S'6c12aa10-032e-48c7-8bb9-aee3e8f6b10b'
p367
sS'csITpConnectionRequestHandlesCB'
p368
S'5ddec942-30ef-493d-98a4-eb4cf551e566'
p369
sS'csITpSocketNetmaskIPv6'
p370
S'db3263ff-fb2f-428b-a2c8-fb8d0cbdf321'
p371
sS'csITpSocketNetmaskIPv4'
p372
S'76a8b6d8-28a2-4d64-a931-dc72157491e8'
p373
sS'csITpChannelTypeStreamTubeNewLocalConnectionObserver'
p374
S'f3d23e60-bfb4-424a-be34-0ffca54a7ebd'
p375
sS'csITpConnectionInterfaceContactCapabilitiesGetContactCapabilitiesCB'
p376
S'5a651cad-b043-4b3f-b0c0-6f67547171f1'
p377
sS'csITpConnectionInterfaceAvatars'
p378
S'e1d5319a-e2db-4dfa-8bbd-55dc8d093595'
p379
sS'csITpChannelTypeStreamedMediaStreamErrorObserver'
p380
S'82736273-f024-44ea-8f68-634d4a0c3f5a'
p381
sS'csITpChannelTypeFileTransferContentHashCB'
p382
S'a61068b9-9bbe-4203-a94d-91a56937d74f'
p383
sS'csITpChannelTypeFileTransferContentTypeCB'
p384
S'2a69d444-0cd2-4b09-9c91-e17b686879de'
p385
sS'csITpChannelDispatcher'
p386
S'b070f6f5-4882-4421-89c8-6772f25e7812'
p387
sS'csITpChannelTypeTextLostMessageObserver'
p388
S'94f9f2ee-f329-4132-ae45-1526293ad90e'
p389
sS'csITpChannelTypeFileTransferFileTransferStateChangedObserver'
p390
S'72fd865c-4087-43b3-b670-57657814ff1a'
p391
sS'csITpChannelTypeTubesGetStreamTubeSocketAddressCB'
p392
S'37fd7540-0e58-415f-9e34-48151aa42e73'
p393
sS'csITpConnectionInterfaceContactsGetContactAttributesCB'
p394
S'2ec1928d-fc46-44a1-9b3e-2200c1b49342'
p395
sS'csITpTubeInfo'
p396
S'fdb0c850-0877-46b0-8468-37ce5a1bcdf4'
p397
sS'csITpChannelInterfaceMessagesDeliveryReportingSupportCB'
p398
S'edae6d45-47a3-4dee-9e8a-aabd8da33d33'
p399
sS'csITpConnectionInterfaceAvatarsMinimumAvatarWidthCB'
p400
S'e71ce6ef-62b5-41be-a61a-9869b6c2db54'
p401
sS'csITpChannelTargetHandleCB'
p402
S'ee8503fd-b327-44e5-99b6-e18eef01862b'
p403
sS'csITpConnectionManagerRequestConnectionCB'
p404
S'3a120acf-f8ec-47c6-be26-ba843757e012'
p405
sS'csITpConnectionInterfaceRequestsChannelsCB'
p406
S'2ae9792f-64e5-4417-a1d7-29257276bdc5'
p407
sS'csITpSupportedSocketMap'
p408
S'91d01230-309a-495e-afe1-451d57cd7d1e'
p409
sS'csITpStatusSpecMap'
p410
S'81dcb2b2-a150-4670-ac3a-d5b8168f8a26'
p411
sS'csITpRoomInfo'
p412
S'8ad2b0d1-eb30-4eee-a21d-5ced9c19cb03'
p413
sS'csITpChannelInterfaceHoldGetHoldStateCB'
p414
S'6264516d-36ca-47e7-b40e-596d821a77b7'
p415
sS'csITpChannelRequestCancelCB'
p416
S'266977fb-32e9-4434-8f81-e242e95280dc'
p417
sS'csITpConnectionGetProtocolCB'
p418
S'cbac415b-2808-4886-949a-b71970965b51'
p419
sS'csITpChannelTypeContactList'
p420
S'28046f0f-955e-475a-8766-a79239779cbe'
p421
sS'csITpChannelDispatchOperation'
p422
S'd4685488-aa0f-4711-adbd-a71f63c9ea0a'
p423
sS'csITpChannelInterfaceHoldRequestHoldCB'
p424
S'dbf09f09-e89a-450b-9462-1ce313fa3d04'
p425
sS'csITpChannelDispatcherInterfaceOperationListDispatchOperationsCB'
p426
S'b530e746-d29e-473e-90f4-ad9085201b8a'
p427
sS'csITpChannelInterfaceMessagesSendMessageCB'
p428
S'2ad47abb-0766-4b4f-ac16-38891026707c'
p429
sS'csITpConnectionInterfaceAliasingRequestAliasesCB'
p430
S'1fc75e20-d10d-4c9d-a96c-0914d0573e82'
p431
sS'csITpChannelInterfaceGroupSelfHandleCB'
p432
S'434ffd80-b439-40a2-9633-1256a20c0e5f'
p433
sS'csITpConnectionInterfaceAvatarsMaximumAvatarHeightCB'
p434
S'c194da96-a14a-4c1a-810a-8c0840ecba9f'
p435
sS'csITpChannelInterfaceCallStateGetCallStatesCB'
p436
S'29ecbf17-a1ff-4a43-b9e6-7283143cf5e3'
p437
sS'csITpConnectionRequestChannelCB'
p438
S'ff2d7005-3c37-4b0d-92df-4d34df2e7acf'
p439
sS'csITpConnectionInterfaceSimplePresenceStatusesCB'
p440
S'4aca76bb-bd07-4950-962b-87800a5126dd'
p441
sS'csITpChannelTypeTextGetMessageTypesCB'
p442
S'f1f12989-1a14-41b7-8b79-816e1dd97b5b'
p443
sS'csITpConnectionHoldHandlesCB'
p444
S'8ee6f63f-a8ab-4143-aee2-bc95588a7853'
p445
sS'csITpChannelTypeStreamTubeAcceptCB'
p446
S'a2ab3298-7bb8-4f8e-95c4-3a92ed862092'
p447
sS'csITpConnectionInterfaceContactsContactAttributeInterfacesCB'
p448
S'1e06b010-cf7e-46c4-bc1c-a11b93ed0095'
p449
sS'csITpHandleOwnerMap'
p450
S'24843e3e-b168-4fe0-9c7f-9f6fbf7df78c'
p451
sS'csITpPendingTextMessage'
p452
S'87842e58-6e57-4057-99d3-244dc17bc4ae'
p453
sS'csITpChannelTypeRoomListListRoomsCB'
p454
S'f0f08456-4666-4290-a6e6-d27810912c55'
p455
sS'csITpChannelInterfaceTubeParametersCB'
p456
S'357034cc-31f1-4ffc-8512-97bd9841b77b'
p457
sS'csITpMessagePartContentMap'
p458
S'77de6009-fc98-4101-8a47-dc8ee50ee4cb'
p459
sS'csITpChannelInterfaceHold'
p460
S'ede697c5-16ae-4b82-be12-06a94f9c8b3f'
p461
sS'csITpChannelInterfaceMessagesSupportedContentTypesCB'
p462
S'906112ad-3199-4206-9477-44033ce8c41e'
p463
sS'csITpConnectionInterfacePresenceSetStatusCB'
p464
S'c803cc17-94c9-4fbb-8ff5-8927d1af460d'
p465
sS'csITpChannelInterfaceGroupGetHandleOwnersCB'
p466
S'369ed356-14a9-487b-b632-0837e7efc8b8'
p467
sS'csITpChannelTypeTextAcknowledgePendingMessagesCB'
p468
S'1a2328fb-ff4b-4b5a-9dbb-f38bb4db6710'
p469
sS'csITpChannelInterfaceGroupHandleOwnersCB'
p470
S'92e980b9-9fb0-4cb9-b429-c52f8becf943'
p471
sS'csITpChannelRequestRequestsCB'
p472
S'62586a2d-14c3-48cd-a7df-4ae141949d4f'
p473
sS'csITpChannelInterfaceMediaSignallingNewSessionHandlerObserver'
p474
S'29a87c7c-cab1-47c5-959a-02b70ec895ae'
p475
sS'csITpChannelInterfaceMessagesMessageReceivedObserver'
p476
S'd3385afb-9585-48d8-82c3-5fcbd1432eec'
p477
sS'csITpConnectionInterfaceRequestsRequestableChannelClassesCB'
p478
S'8c8e741e-6158-49d4-904e-4b2b87f42b1f'
p479
sS'csITpMediaSessionHandlerInfo'
p480
S'0072fe6c-a0e3-4fa9-8476-4f877e46cfdb'
p481
sS'csITpCapabilityChange'
p482
S'acf449c8-5b3b-4284-a136-785074b955b2'
p483
sS'csITpChannelRequestAccountCB'
p484
S'59f61b15-6371-44e5-a465-02a1f445d8c9'
p485
sS'csITpChannelInterfaceMediaSignallingGetSessionHandlersCB'
p486
S'b2f43706-9e18-4699-883d-d4cfd6dc8472'
p487
sS'csITpLocalPendingInfo'
p488
S'28f1fc09-3e47-4940-9f57-8f7275a4c958'
p489
sS'csITpChannelTypeTubesOfferStreamTubeCB'
p490
S'a75a84b0-1660-40db-b765-ca5bd1aa3a0c'
p491
sS'csITpChannelInterfaceTubeStateCB'
p492
S'248ce80e-b77d-4931-8a3e-86f679c56e28'
p493
sS'csITpChannelRequest'
p494
S'399138b6-747c-4c07-9a76-dfe622670097'
p495
sS'csITpChannelInterfaceChatState'
p496
S'9b902aff-360e-417a-a4a5-555e8d9cc22a'
p497
sS'csITpChannelRequestProceedCB'
p498
S'e9cd6488-5e44-4770-84fa-23ede25b66cc'
p499
sS'csITpChannelDispatcherInterfaceOperationList'
p500
S'afd91d37-1e3e-423a-910f-b9bc3b608096'
p501
sS'csITpChannelTypeTubesTubeStateChangedObserver'
p502
S'07285633-3dd9-481e-a60c-8982fd256348'
p503
sS'csITpConnectionInterfaceContactCapabilities'
p504
S'a41bea54-e1d9-4242-9e51-fc71129c2614'
p505
sS'csITpQualifiedPropertyValueMap'
p506
S'be7cf0f9-edb4-4561-bccf-afe9d35adf95'
p507
sS'csITpConnectionInterfaceRequests'
p508
S'c4ce4601-ccd6-47aa-975e-0bfa72fd835f'
p509
sS'csITpChannelInterfaceChatStateSetChatStateCB'
p510
S'6f0fc067-617a-47bd-96ff-447faf56a212'
p511
sS'csITpChannelInterfaceCallStateCallStateChangedObserver'
p512
S'823ad299-867f-48fc-995e-f749f22726ea'
p513
sS'csITpConnectionSelfHandleCB'
p514
S'029e9ea2-346d-4fa4-8007-940d49402960'
p515
sS'csITpChannelInterfacePasswordProvidePasswordCB'
p516
S'fd2266f0-349d-48d9-ace1-52b09ac72b3f'
p517
sS'csITpChannelInterfaceDestroyable'
p518
S'f1111b5a-b8ac-4f5e-a82b-92fa4b98f96e'
p519
sS'csITpChannelTypeRoomListListingRoomsObserver'
p520
S'4b96c72e-7237-45ef-b9b4-15772f9385e6'
p521
sS'csITpChannelTargetHandleTypeCB'
p522
S'9be88b56-3419-4a64-a628-9f2933b7405c'
p523
sS'csITpConnectionInterfacePresenceGetPresenceCB'
p524
S'6ae48dd6-013e-4492-83b8-62ca55a13f1b'
p525
sS'csITpChannelInterfaceGroup'
p526
S'b1ebfeda-0f62-47a2-86b8-4bbb9323b6f9'
p527
sS'csITpChannelInterfacesCB'
p528
S'df62ca79-7e9b-4e86-b621-9776dcc7c5eb'
p529
sS'csITpChannelRequestPreferredHandlerCB'
p530
S'7f31d0f4-1f49-4ddd-97ef-bfc29f01d1b6'
p531
sS'csITpChannelTypeFileTransferDescriptionCB'
p532
S'917c2246-22f0-42a0-9d04-5edb34207f35'
p533
sS'csITpChannelTypeDBusTube'
p534
S'05850e94-a896-4a65-87d5-643a443d8976'
p535
sS'csITpChannelInterfaceDTMFStartToneCB'
p536
S'4ea88957-9d32-44a2-af60-1ed655a5310b'
p537
sS'csITpConnectionInterfaceLocationSetLocationCB'
p538
S'f4c48ed5-088d-4875-9ee8-b479c8476b07'
p539
sS'csITpRequestableChannelClass'
p540
S'f644b57d-e4db-4572-9260-db35ed4b6b0b'
p541
sS'csITpChannelInterfaceTube'
p542
S'dc181194-c24e-4777-958f-1b563f533114'
p543
sS'csITpChannelTypeStreamTubeConnectionClosedObserver'
p544
S'b94702ef-515a-4ac3-8fc6-0160a3f9af8c'
p545
sS'csITpStringStringMap'
p546
S'd385d279-7875-48a0-8a8c-6bf6e9620cd9'
p547
sS'csITpChannelRequestUserActionTimeCB'
p548
S'f726ce98-233b-41fb-8e2a-5524b4e6cc9a'
p549
sS'csITpAliasMap'
p550
S'c1d72fa2-497b-473b-827d-d0c22d657a98'
p551
sS'csITpChannelInterfacePasswordPasswordFlagsChangedObserver'
p552
S'5ad82975-edbb-42d7-ada6-83cfa0d4f5ea'
p553
sS'csITpChannelRequestInterfacesCB'
p554
S'0748606a-ed92-4658-b12f-8b7018115ede'
p555
sS'csITpContactPresences'
p556
S'7ae9499b-d067-4fc6-aaea-4ace78561907'
p557
sS'csITpChannelRequestedCB'
p558
S'1d18053f-bb25-4daf-97ed-e6cdafe74ba0'
p559
sS'csITpConnectionManagerGetParametersCB'
p560
S'1c160bfb-bda7-4f26-9f63-4c4d12b7f4cd'
p561
sS'csITpConnectionInterfaceLocationRequestLocationCB'
p562
S'0e741605-3529-48d0-829b-a74e439f1fc2'
p563
sS'csITpChannelInterfaceDTMFStopToneCB'
p564
S'1adc163b-d98b-4bf1-9e6d-a5b30cb2c27a'
p565
sS'csITpChannelClosedObserver'
p566
S'dfd0e5b8-2cf7-44bb-a2f7-6e05b349c4c1'
p567
sS'csITpChannelTypeTextReceivedObserver'
p568
S'2118d560-fe64-46ae-9ecf-5a0e1f2d4035'
p569
sS'csITpChannelTypeRoomListGotRoomsObserver'
p570
S'9267b30f-f0b9-49ab-8433-117a5bfa85d1'
p571
sS'csITpDispatchOperationDetails'
p572
S'8379ab4c-d6da-4336-9e0b-0028f442fdfd'
p573
sS'csITpChannelTypeTubesStreamTubeNewConnectionObserver'
p574
S'e97258d8-bb4f-4783-bb22-5271dec4fc90'
p575
sS'csITpChannelGetHandleCB'
p576
S'39ba91af-9a0a-4c4e-8722-3035ab085274'
p577
sS'csITpChannelDispatchOperationAccountCB'
p578
S'4344d38e-91de-4b4e-8d71-16819d57592e'
p579
sS'csITpChannelDispatcherEnsureChannelCB'
p580
S'df5b4feb-4496-4402-8e7c-884bcd0bca7d'
p581
sS'csITpChannelInterfaceGroupGetLocalPendingMembersCB'
p582
S'00b26caa-c750-433d-8ad2-c034a6d502d7'
p583
sS'csITpChannelTypeTubesGetDBusNamesCB'
p584
S'e99e96ed-01d2-4ca6-a81e-75785e938f97'
p585
sS'csITpConnectionInterfaceLocationLocationAccessControlTypesCB'
p586
S'9c967d16-63e5-45ff-8cb8-514e00237774'
p587
sS'csITpChannelDispatchOperationChannelsCB'
p588
S'5163efcf-59c5-47b3-9e20-063636790571'
p589
sS'csITpDBusTubeMember'
p590
S'0e6ac3ae-6bc6-4908-beca-126c965a4569'
p591
sS'csITpChannelInterfaceGroupSelfHandleChangedObserver'
p592
S'ca9a0265-112f-44fb-86e4-c3bb1c565609'
p593
sS'csITpChannelInterfaceGroupGetSelfHandleCB'
p594
S'afbfcd1e-8616-47f0-961e-6470d356fa5f'
p595
sS'csITpChannelInterfaceDTMF'
p596
S'f4263b6b-e4bb-4818-970c-d5ffe3ae4460'
p597
sS'csITpChannelTypeTextSendCB'
p598
S'ad28c66c-0d38-466a-bd95-395f5d90b14e'
p599
sS'csITpChannelInterfaceGroupAddMembersCB'
p600
S'be9bb8dc-06ca-4a33-89f0-c1f1681d8bf3'
p601
sS'csITpChannelTypeDBusTubeDBusNamesChangedObserver'
p602
S'37b520a6-6aae-40e2-9438-6317ce8e0f99'
p603
sS'csITpConnectionInterfaceLocationLocationUpdatedObserver'
p604
S'12998d66-5441-43cb-ba30-932e003a00fe'
p605
sS'csITpChannelTypeFileTransferSizeCB'
p606
S'0baa4279-b30b-49b5-a0a1-7fcc4454f628'
p607
sS'csITpConnectionGetStatusCB'
p608
S'8537baa4-269e-471b-a439-a46c4a0d1b3f'
p609
sS'csITpChannelTypeFileTransferInitialOffsetDefinedObserver'
p610
S'39f8b3e8-7790-48a1-bff2-1f9fa445bcee'
p611
sS'csITpChannelTypeTextSendErrorObserver'
p612
S'30e924db-70d6-49fa-87a2-3537cfb7eb46'
p613
sS'csITpChannelTypeStreamedMediaInitialAudioCB'
p614
S'bf35ae8b-41b1-48f4-9431-e5293d289349'
p615
sS'csITpChannelCallStateMap'
p616
S'b9388c94-329d-4530-916b-dea73edd51b4'
p617
sS'csITpConnectionInterfaceAvatarsAvatarUpdatedObserver'
p618
S'95c1d42c-a5a3-4f9b-9a5c-8666f5eed30f'
p619
sS'csITpConnectionInterfaceAvatarsRequestAvatarsCB'
p620
S'8dc9223c-d715-4922-a5a7-3c47028799a7'
p621
sS'csITpConnectionInterfacePresenceAddStatusCB'
p622
S'a3631624-bb12-466a-b302-3cb0ea82fada'
p623
sS'csITpChannelTypeTextSentObserver'
p624
S'710d7ee1-3fe4-47f9-8de4-c9a0fd58158d'
p625
sS'csITpConnectionInterfaceCapabilitiesGetCapabilitiesCB'
p626
S'4efa520d-5f73-4add-b0ea-0e204909a989'
p627
sS'csITpChannelInterfaceGroupHandleOwnersChangedObserver'
p628
S'459f64b7-d82f-42aa-962d-c946dc9af3ac'
p629
sS'csITpChannelRequestSucceededObserver'
p630
S'50bdfa87-a7cf-4141-a137-12d5f649a4e2'
p631
sS'csITpChannelTypeStreamedMediaListStreamsCB'
p632
S'9bac867b-6a00-4d3a-a739-8b7fc6d3e240'
p633
sS'csITpChannelDispatcherInterfacesCB'
p634
S'0ef69099-d85e-40be-ad9a-d7391ff1b115'
p635
sS'csITpChannelTypeStreamTubeNewRemoteConnectionObserver'
p636
S'd62dfd09-a9e1-44cf-bd74-ba7d25fba853'
p637
s.